target datalayout = "e-m:e-p270:32:32-p271:32:32-p272:64:64-i64:64-i128:128-f80:128-n8:16:32:64-S128"
target triple = "x86_64-pc-linux-gnu"

%"class.icu_77::UObject" = type { ptr }
%"class.icu_77::SharedNumberFormat" = type { %"class.icu_77::SharedObject", ptr }
%"class.icu_77::SharedObject" = type { %"class.icu_77::UObject", i32, %"struct.std::atomic", ptr }
%"struct.std::atomic" = type { %"struct.std::__atomic_base" }
%"struct.std::__atomic_base" = type { i32 }

@_ZL8gService = internal global ptr null, align 8
@.str = private unnamed_addr constant [3 x i8] c"cf\00", align 1
@.str.1 = private unnamed_addr constant [8 x i8] c"account\00", align 1

; Function Attrs: mustprogress uwtable
define noundef ptr @_ZN6icu_7712NumberFormat12makeInstanceERKNS_6LocaleE18UNumberFormatStyleR10UErrorCode(ptr noundef nonnull align 8 dereferenceable(217) %0, i32 noundef %1, ptr noundef nonnull align 4 dereferenceable(4) %2) #1 align 2 {
  %4 = alloca ptr, align 8
  %5 = alloca i32, align 4
  %6 = alloca ptr, align 8
  store ptr %0, ptr %4, align 8, !tbaa !27
  store i32 %1, ptr %5, align 4, !tbaa !118
  store ptr %2, ptr %6, align 8, !tbaa !22
  %7 = load ptr, ptr %4, align 8, !tbaa !27
  %8 = load i32, ptr %5, align 4, !tbaa !118
  %9 = load ptr, ptr %6, align 8, !tbaa !22
  %10 = call noundef ptr @_ZN6icu_7712NumberFormat12makeInstanceERKNS_6LocaleE18UNumberFormatStyleaR10UErrorCode(ptr noundef nonnull align 8 dereferenceable(217) %7, i32 noundef %8, i8 noundef signext 0, ptr noundef nonnull align 4 dereferenceable(4) %9)
  ret ptr %10
}

; Function Attrs: inlinehint mustprogress nounwind uwtable
define internal noundef signext i8 @_ZL9U_SUCCESS10UErrorCode(i32 noundef %0) #2 {
  %2 = alloca i32, align 4
  store i32 %0, ptr %2, align 4, !tbaa !15
  %3 = load i32, ptr %2, align 4, !tbaa !15
  %4 = icmp sle i32 %3, 0
  %5 = zext i1 %4 to i8
  ret i8 %5
}

; Function Attrs: mustprogress nounwind uwtable
define linkonce_odr noundef ptr @_ZNK6icu_7718SharedNumberFormatptEv(ptr noundef nonnull align 8 dereferenceable(32) %0) #0 comdat align 2 {
  %2 = alloca ptr, align 8
  store ptr %0, ptr %2, align 8, !tbaa !56
  %3 = load ptr, ptr %2, align 8
  %4 = getelementptr inbounds nuw %"class.icu_77::SharedNumberFormat", ptr %3, i32 0, i32 1
  %5 = load ptr, ptr %4, align 8, !tbaa !58
  ret ptr %5
}

; Function Attrs: inlinehint mustprogress nounwind uwtable
define internal noundef signext i8 @_ZL9U_FAILURE10UErrorCode(i32 noundef %0) #2 {
  %2 = alloca i32, align 4
  store i32 %0, ptr %2, align 4, !tbaa !15
  %3 = load i32, ptr %2, align 4, !tbaa !15
  %4 = icmp sgt i32 %3, 0
  %5 = zext i1 %4 to i8
  ret i8 %5
}

; Function Attrs: mustprogress uwtable
define noundef ptr @_ZN6icu_7712NumberFormat20createSharedInstanceERKNS_6LocaleE18UNumberFormatStyleR10UErrorCode(ptr noundef nonnull align 8 dereferenceable(217) %0, i32 noundef %1, ptr noundef nonnull align 4 dereferenceable(4) %2) #1 align 2 {
  %4 = alloca ptr, align 8
  %5 = alloca ptr, align 8
  %6 = alloca i32, align 4
  %7 = alloca ptr, align 8
  %8 = alloca ptr, align 8
  store ptr %0, ptr %5, align 8, !tbaa !27
  store i32 %1, ptr %6, align 4, !tbaa !118
  store ptr %2, ptr %7, align 8, !tbaa !22
  %9 = load ptr, ptr %7, align 8, !tbaa !22
  %10 = load i32, ptr %9, align 4, !tbaa !15
  %11 = call noundef signext i8 @_ZL9U_FAILURE10UErrorCode(i32 noundef %10)
  %12 = icmp ne i8 %11, 0
  br i1 %12, label %13, label %14

13:                                               ; preds = %3
  store ptr null, ptr %4, align 8
  br label %23

14:                                               ; preds = %3
  %15 = load i32, ptr %6, align 4, !tbaa !118
  %16 = icmp ne i32 %15, 1
  br i1 %16, label %17, label %19

17:                                               ; preds = %14
  %18 = load ptr, ptr %7, align 8, !tbaa !22
  store i32 16, ptr %18, align 4, !tbaa !15
  store ptr null, ptr %4, align 8
  br label %23

19:                                               ; preds = %14
  call void @llvm.lifetime.start.p0(i64 8, ptr %8) #15
  store ptr null, ptr %8, align 8, !tbaa !56
  %20 = load ptr, ptr %5, align 8, !tbaa !27
  %21 = load ptr, ptr %7, align 8, !tbaa !22
  call void @_ZN6icu_7712UnifiedCache11getByLocaleINS_18SharedNumberFormatEEEvRKNS_6LocaleERPKT_R10UErrorCode(ptr noundef nonnull align 8 dereferenceable(217) %20, ptr noundef nonnull align 8 dereferenceable(8) %8, ptr noundef nonnull align 4 dereferenceable(4) %21)
  %22 = load ptr, ptr %8, align 8, !tbaa !56
  store ptr %22, ptr %4, align 8
  call void @llvm.lifetime.end.p0(i64 8, ptr %8) #15
  br label %23

23:                                               ; preds = %19, %17, %13
  %24 = load ptr, ptr %4, align 8
  ret ptr %24
}

; Function Attrs: mustprogress uwtable
define noundef ptr @_ZN6icu_7712NumberFormat22internalCreateInstanceERKNS_6LocaleE18UNumberFormatStyleR10UErrorCode(ptr noundef nonnull align 8 dereferenceable(217) %0, i32 noundef %1, ptr noundef nonnull align 4 dereferenceable(4) %2) #1 align 2 {
  %4 = alloca ptr, align 8
  %5 = alloca ptr, align 8
  %6 = alloca i32, align 4
  %7 = alloca ptr, align 8
  %8 = alloca [32 x i8], align 16
  %9 = alloca i32, align 4
  %10 = alloca i32, align 4
  store ptr %0, ptr %5, align 8, !tbaa !27
  store i32 %1, ptr %6, align 4, !tbaa !118
  store ptr %2, ptr %7, align 8, !tbaa !22
  %11 = load i32, ptr %6, align 4, !tbaa !118
  %12 = icmp eq i32 %11, 2
  br i1 %12, label %13, label %29

13:                                               ; preds = %3
  call void @llvm.lifetime.start.p0(i64 32, ptr %8) #15
  call void @llvm.memset.p0.i64(ptr align 16 %8, i8 0, i64 32, i1 false)
  call void @llvm.lifetime.start.p0(i64 4, ptr %9) #15
  store i32 0, ptr %9, align 4, !tbaa !15
  call void @llvm.lifetime.start.p0(i64 4, ptr %10) #15
  %14 = load ptr, ptr %5, align 8, !tbaa !27
  %15 = getelementptr inbounds [32 x i8], ptr %8, i64 0, i64 0
  %16 = call noundef i32 @_ZNK6icu_776Locale15getKeywordValueEPKcPciR10UErrorCode(ptr noundef nonnull align 8 dereferenceable(217) %14, ptr noundef @.str, ptr noundef %15, i32 noundef 32, ptr noundef nonnull align 4 dereferenceable(4) %9)
  store i32 %16, ptr %10, align 4, !tbaa !14
  %17 = load i32, ptr %9, align 4, !tbaa !15
  %18 = call noundef signext i8 @_ZL9U_SUCCESS10UErrorCode(i32 noundef %17)
  %19 = icmp ne i8 %18, 0
  br i1 %19, label %20, label %28

20:                                               ; preds = %13
  %21 = load i32, ptr %10, align 4, !tbaa !14
  %22 = icmp sgt i32 %21, 0
  br i1 %22, label %23, label %28

23:                                               ; preds = %20
  %24 = getelementptr inbounds [32 x i8], ptr %8, i64 0, i64 0
  %25 = call i32 @strcmp(ptr noundef %24, ptr noundef @.str.1) #11
  %26 = icmp eq i32 %25, 0
  br i1 %26, label %27, label %28

27:                                               ; preds = %23
  store i32 12, ptr %6, align 4, !tbaa !118
  br label %28

28:                                               ; preds = %27, %23, %20, %13
  call void @llvm.lifetime.end.p0(i64 4, ptr %10) #15
  call void @llvm.lifetime.end.p0(i64 4, ptr %9) #15
  call void @llvm.lifetime.end.p0(i64 32, ptr %8) #15
  br label %29

29:                                               ; preds = %28, %3
  %30 = call noundef signext i8 @_ZN6icu_77L11haveServiceEv()
  %31 = icmp ne i8 %30, 0
  br i1 %31, label %32, label %38

32:                                               ; preds = %29
  %33 = load ptr, ptr @_ZL8gService, align 8, !tbaa !139
  %34 = load ptr, ptr %5, align 8, !tbaa !27
  %35 = load i32, ptr %6, align 4, !tbaa !118
  %36 = load ptr, ptr %7, align 8, !tbaa !22
  %37 = call noundef ptr @_ZNK6icu_7716ICULocaleService3getERKNS_6LocaleEiR10UErrorCode(ptr noundef nonnull align 8 dereferenceable(408) %33, ptr noundef nonnull align 8 dereferenceable(217) %34, i32 noundef %35, ptr noundef nonnull align 4 dereferenceable(4) %36)
  store ptr %37, ptr %4, align 8
  br label %43

38:                                               ; preds = %29
  %39 = load ptr, ptr %5, align 8, !tbaa !27
  %40 = load i32, ptr %6, align 4, !tbaa !118
  %41 = load ptr, ptr %7, align 8, !tbaa !22
  %42 = call noundef ptr @_ZN6icu_7712NumberFormat12makeInstanceERKNS_6LocaleE18UNumberFormatStyleR10UErrorCode(ptr noundef nonnull align 8 dereferenceable(217) %39, i32 noundef %40, ptr noundef nonnull align 4 dereferenceable(4) %41)
  store ptr %42, ptr %4, align 8
  br label %43

43:                                               ; preds = %38, %32
  %44 = load ptr, ptr %4, align 8
  ret ptr %44
}

; Function Attrs: mustprogress uwtable
define noundef ptr @_ZN6icu_7712NumberFormat14createInstanceERKNS_6LocaleE18UNumberFormatStyleR10UErrorCode(ptr noundef nonnull align 8 dereferenceable(217) %0, i32 noundef %1, ptr noundef nonnull align 4 dereferenceable(4) %2) #1 align 2 {
  %4 = alloca ptr, align 8
  %5 = alloca ptr, align 8
  %6 = alloca i32, align 4
  %7 = alloca ptr, align 8
  %8 = alloca ptr, align 8
  %9 = alloca i32, align 4
  %10 = alloca ptr, align 8
  store ptr %0, ptr %5, align 8, !tbaa !27
  store i32 %1, ptr %6, align 4, !tbaa !118
  store ptr %2, ptr %7, align 8, !tbaa !22
  %11 = load i32, ptr %6, align 4, !tbaa !118
  %12 = icmp ne i32 %11, 1
  br i1 %12, label %13, label %18

13:                                               ; preds = %3
  %14 = load ptr, ptr %5, align 8, !tbaa !27
  %15 = load i32, ptr %6, align 4, !tbaa !118
  %16 = load ptr, ptr %7, align 8, !tbaa !22
  %17 = call noundef ptr @_ZN6icu_7712NumberFormat22internalCreateInstanceERKNS_6LocaleE18UNumberFormatStyleR10UErrorCode(ptr noundef nonnull align 8 dereferenceable(217) %14, i32 noundef %15, ptr noundef nonnull align 4 dereferenceable(4) %16)
  store ptr %17, ptr %4, align 8
  br label %43

18:                                               ; preds = %3
  call void @llvm.lifetime.start.p0(i64 8, ptr %8) #15
  %19 = load ptr, ptr %5, align 8, !tbaa !27
  %20 = load i32, ptr %6, align 4, !tbaa !118
  %21 = load ptr, ptr %7, align 8, !tbaa !22
  %22 = call noundef ptr @_ZN6icu_7712NumberFormat20createSharedInstanceERKNS_6LocaleE18UNumberFormatStyleR10UErrorCode(ptr noundef nonnull align 8 dereferenceable(217) %19, i32 noundef %20, ptr noundef nonnull align 4 dereferenceable(4) %21)
  store ptr %22, ptr %8, align 8, !tbaa !56
  %23 = load ptr, ptr %7, align 8, !tbaa !22
  %24 = load i32, ptr %23, align 4, !tbaa !15
  %25 = call noundef signext i8 @_ZL9U_FAILURE10UErrorCode(i32 noundef %24)
  %26 = icmp ne i8 %25, 0
  br i1 %26, label %27, label %28

27:                                               ; preds = %18
  store ptr null, ptr %4, align 8
  store i32 1, ptr %9, align 4
  br label %42

28:                                               ; preds = %18
  call void @llvm.lifetime.start.p0(i64 8, ptr %10) #15
  %29 = load ptr, ptr %8, align 8, !tbaa !56
  %30 = call noundef ptr @_ZNK6icu_7718SharedNumberFormatptEv(ptr noundef nonnull align 8 dereferenceable(32) %29)
  %31 = load ptr, ptr %30, align 8, !tbaa !30
  %32 = getelementptr inbounds ptr, ptr %31, i64 4
  %33 = load ptr, ptr %32, align 8
  %34 = call noundef ptr %33(ptr noundef nonnull align 8 dereferenceable(60) %30)
  store ptr %34, ptr %10, align 8, !tbaa !40
  %35 = load ptr, ptr %8, align 8, !tbaa !56
  call void @_ZNK6icu_7712SharedObject9removeRefEv(ptr noundef nonnull align 8 dereferenceable(24) %35)
  %36 = load ptr, ptr %10, align 8, !tbaa !40
  %37 = icmp eq ptr %36, null
  br i1 %37, label %38, label %40

38:                                               ; preds = %28
  %39 = load ptr, ptr %7, align 8, !tbaa !22
  store i32 7, ptr %39, align 4, !tbaa !15
  br label %40

40:                                               ; preds = %38, %28
  %41 = load ptr, ptr %10, align 8, !tbaa !40
  store ptr %41, ptr %4, align 8
  store i32 1, ptr %9, align 4
  call void @llvm.lifetime.end.p0(i64 8, ptr %10) #15
  br label %42

42:                                               ; preds = %40, %27
  call void @llvm.lifetime.end.p0(i64 8, ptr %8) #15
  br label %43

43:                                               ; preds = %42, %13
  %44 = load ptr, ptr %4, align 8
  ret ptr %44
}