; Function Attrs: mustprogress uwtable
define noundef ptr @_ZN6icu_7712NumberFormat14createInstanceERKNS_6LocaleE18UNumberFormatStyleR10UErrorCode(ptr noundef nonnull align 8 dereferenceable(217) %0, i32 noundef %1, ptr noundef nonnull align 4 dereferenceable(4) %2) local_unnamed_addr #1 align 2 {
  %4 = alloca ptr, align 8
  %5 = alloca [32 x i8], align 16
  %6 = alloca i32, align 4
  switch i32 %1, label %12 [
    i32 1, label %19
    i32 2, label %7
  ]

7:                                                ; preds = %3
  call void @llvm.lifetime.start.p0(i64 32, ptr nonnull %5) #22
  call void @llvm.memset.p0.i64(ptr noundef nonnull align 16 dereferenceable(32) %5, i8 0, i64 32, i1 false)
  call void @llvm.lifetime.start.p0(i64 4, ptr nonnull %6) #22
  store i32 0, ptr %6, align 4, !tbaa !13
  %8 = call noundef i32 @_ZNK6icu_776Locale15getKeywordValueEPKcPciR10UErrorCode(ptr noundef nonnull align 8 dereferenceable(217) %0, ptr noundef nonnull @.str, ptr noundef nonnull %5, i32 noundef 32, ptr noundef nonnull align 4 dereferenceable(4) %6)
  %9 = load i32, ptr %6, align 4, !tbaa !13
  %10 = icmp slt i32 %9, 1
  %11 = icmp sgt i32 %8, 0
  %or.cond.i = and i1 %11, %10
  %lhsv.i = load i64, ptr %5, align 16
  %.not.i = icmp eq i64 %lhsv.i, 32772547957449569
  %or.cond15.i = select i1 %or.cond.i, i1 %.not.i, i1 false
  %.1.i = select i1 %or.cond15.i, i32 12, i32 2
  call void @llvm.lifetime.end.p0(i64 4, ptr nonnull %6) #22
  call void @llvm.lifetime.end.p0(i64 32, ptr nonnull %5) #22
  br label %12

12:                                               ; preds = %3, %7
  %.010.i = phi i32 [ %.1.i, %7 ], [ %1, %3 ]
  %13 = call fastcc noundef signext i8 @_ZN6icu_77L11haveServiceEv()
  %.not14.i = icmp eq i8 %13, 0
  br i1 %.not14.i, label %17, label %14

14:                                               ; preds = %12
  %15 = load ptr, ptr @_ZL8gService, align 8, !tbaa !66
  %16 = call noundef ptr @_ZNK6icu_7716ICULocaleService3getERKNS_6LocaleEiR10UErrorCode(ptr noundef nonnull align 8 dereferenceable(408) %15, ptr noundef nonnull align 8 dereferenceable(217) %0, i32 noundef %.010.i, ptr noundef nonnull align 4 dereferenceable(4) %2)
  br label %_ZN6icu_7712NumberFormat22internalCreateInstanceERKNS_6LocaleE18UNumberFormatStyleR10UErrorCode.exit

17:                                               ; preds = %12
  %18 = call noundef ptr @_ZN6icu_7712NumberFormat12makeInstanceERKNS_6LocaleE18UNumberFormatStyleaR10UErrorCode(ptr noundef nonnull align 8 dereferenceable(217) %0, i32 noundef %.010.i, i8 noundef signext 0, ptr noundef nonnull align 4 dereferenceable(4) %2)
  br label %_ZN6icu_7712NumberFormat22internalCreateInstanceERKNS_6LocaleE18UNumberFormatStyleR10UErrorCode.exit

19:                                               ; preds = %3
  %20 = load i32, ptr %2, align 4, !tbaa !13
  %21 = icmp slt i32 %20, 1
  br i1 %21, label %_ZN6icu_7712NumberFormat20createSharedInstanceERKNS_6LocaleE18UNumberFormatStyleR10UErrorCode.exit, label %_ZN6icu_7712NumberFormat22internalCreateInstanceERKNS_6LocaleE18UNumberFormatStyleR10UErrorCode.exit

_ZN6icu_7712NumberFormat20createSharedInstanceERKNS_6LocaleE18UNumberFormatStyleR10UErrorCode.exit: ; preds = %19
  call void @llvm.lifetime.start.p0(i64 8, ptr nonnull %4) #22
  store ptr null, ptr %4, align 8, !tbaa !64
  call void @_ZN6icu_7712UnifiedCache11getByLocaleINS_18SharedNumberFormatEEEvRKNS_6LocaleERPKT_R10UErrorCode(ptr noundef nonnull align 8 dereferenceable(217) %0, ptr noundef nonnull align 8 dereferenceable(8) %4, ptr noundef nonnull align 4 dereferenceable(4) %2)
  %22 = load ptr, ptr %4, align 8, !tbaa !64
  call void @llvm.lifetime.end.p0(i64 8, ptr nonnull %4) #22
  %.pre = load i32, ptr %2, align 4, !tbaa !13
  %23 = icmp slt i32 %.pre, 1
  br i1 %23, label %24, label %_ZN6icu_7712NumberFormat22internalCreateInstanceERKNS_6LocaleE18UNumberFormatStyleR10UErrorCode.exit

24:                                               ; preds = %_ZN6icu_7712NumberFormat20createSharedInstanceERKNS_6LocaleE18UNumberFormatStyleR10UErrorCode.exit
  %25 = getelementptr inbounds nuw i8, ptr %22, i64 24
  %26 = load ptr, ptr %25, align 8, !tbaa !38
  %27 = load ptr, ptr %26, align 8, !tbaa !15
  %28 = getelementptr inbounds nuw i8, ptr %27, i64 32
  %29 = load ptr, ptr %28, align 8
  %30 = call noundef ptr %29(ptr noundef nonnull align 8 dereferenceable(60) %26)
  call void @_ZNK6icu_7712SharedObject9removeRefEv(ptr noundef nonnull align 8 dereferenceable(24) %22)
  %31 = icmp eq ptr %30, null
  br i1 %31, label %32, label %_ZN6icu_7712NumberFormat22internalCreateInstanceERKNS_6LocaleE18UNumberFormatStyleR10UErrorCode.exit

32:                                               ; preds = %24
  store i32 7, ptr %2, align 4, !tbaa !13
  br label %_ZN6icu_7712NumberFormat22internalCreateInstanceERKNS_6LocaleE18UNumberFormatStyleR10UErrorCode.exit

_ZN6icu_7712NumberFormat22internalCreateInstanceERKNS_6LocaleE18UNumberFormatStyleR10UErrorCode.exit: ; preds = %19, %17, %14, %_ZN6icu_7712NumberFormat20createSharedInstanceERKNS_6LocaleE18UNumberFormatStyleR10UErrorCode.exit, %32, %24
  %.0 = phi ptr [ null, %_ZN6icu_7712NumberFormat20createSharedInstanceERKNS_6LocaleE18UNumberFormatStyleR10UErrorCode.exit ], [ null, %32 ], [ %30, %24 ], [ %16, %14 ], [ %18, %17 ], [ null, %19 ]
  ret ptr %.0
}